; ModuleID = '10/217.c'
source_filename = "10/217.c"
target datalayout = "e-m:e-p270:32:32-p271:32:32-p272:64:64-i64:64-f80:128-n8:16:32:64-S128"
target triple = "x86_64-pc-linux-gnu"

@n = common dso_local global i32 0, align 4
@k = common dso_local global [25 x i32] zeroinitializer, align 16
@.str = private unnamed_addr constant [3 x i8] c"%d\00", align 1

; Function Attrs: noinline nounwind uwtable
define dso_local i32 @f(i32 %0, i32 %1, i32 %2) #0 {
  %4 = alloca i32, align 4
  %5 = alloca i32, align 4
  %6 = alloca i32, align 4
  %7 = alloca i32, align 4
  %8 = alloca i32, align 4
  %9 = alloca i32, align 4
  store i32 %0, i32* %5, align 4
  store i32 %1, i32* %6, align 4
  store i32 %2, i32* %7, align 4
  store i32 0, i32* %9, align 4
  %10 = load i32, i32* %6, align 4
  %11 = load i32, i32* @n, align 4
  %12 = icmp eq i32 %10, %11
  br i1 %12, label %13, label %15

13:                                               ; preds = %3
  %14 = load i32, i32* %7, align 4
  store i32 %14, i32* %4, align 4
  br label %49

15:                                               ; preds = %3
  %16 = load i32, i32* %5, align 4
  %17 = load i32, i32* %6, align 4
  %18 = add nsw i32 %17, 1
  %19 = load i32, i32* %7, align 4
  %20 = call i32 @f(i32 %16, i32 %18, i32 %19)
  store i32 %20, i32* %8, align 4
  %21 = load i32, i32* %5, align 4
  %22 = load i32, i32* %6, align 4
  %23 = add nsw i32 %22, 1
  %24 = sext i32 %23 to i64
  %25 = getelementptr inbounds [25 x i32], [25 x i32]* @k, i64 0, i64 %24
  %26 = load i32, i32* %25, align 4
  %27 = icmp sgt i32 %21, %26
  br i1 %27, label %28, label %39

28:                                               ; preds = %15
  %29 = load i32, i32* %6, align 4
  %30 = add nsw i32 %29, 1
  %31 = sext i32 %30 to i64
  %32 = getelementptr inbounds [25 x i32], [25 x i32]* @k, i64 0, i64 %31
  %33 = load i32, i32* %32, align 4
  %34 = load i32, i32* %6, align 4
  %35 = add nsw i32 %34, 1
  %36 = load i32, i32* %7, align 4
  %37 = add nsw i32 %36, 1
  %38 = call i32 @f(i32 %33, i32 %35, i32 %37)
  store i32 %38, i32* %9, align 4
  br label %39

39:                                               ; preds = %28, %15
  %40 = load i32, i32* %8, align 4
  %41 = load i32, i32* %9, align 4
  %42 = icmp sgt i32 %40, %41
  br i1 %42, label %43, label %45

43:                                               ; preds = %39
  %44 = load i32, i32* %8, align 4
  br label %47

45:                                               ; preds = %39
  %46 = load i32, i32* %9, align 4
  br label %47

47:                                               ; preds = %45, %43
  %48 = phi i32 [ %44, %43 ], [ %46, %45 ]
  store i32 %48, i32* %4, align 4
  br label %49

49:                                               ; preds = %47, %13
  %50 = load i32, i32* %4, align 4
  ret i32 %50
}

; Function Attrs: noinline nounwind uwtable
define dso_local void @main() #0 {
  %1 = alloca i32, align 4
  %2 = call i32 (i8*, ...) @__isoc99_scanf(i8* getelementptr inbounds ([3 x i8], [3 x i8]* @.str, i64 0, i64 0), i32* @n)
  store i32 0, i32* %1, align 4
  br label %3

3:                                                ; preds = %12, %0
  %4 = load i32, i32* %1, align 4
  %5 = load i32, i32* @n, align 4
  %6 = icmp slt i32 %4, %5
  br i1 %6, label %7, label %15

7:                                                ; preds = %3
  %8 = load i32, i32* %1, align 4
  %9 = sext i32 %8 to i64
  %10 = getelementptr inbounds [25 x i32], [25 x i32]* @k, i64 0, i64 %9
  %11 = call i32 (i8*, ...) @__isoc99_scanf(i8* getelementptr inbounds ([3 x i8], [3 x i8]* @.str, i64 0, i64 0), i32* %10)
  br label %12

12:                                               ; preds = %7
  %13 = load i32, i32* %1, align 4
  %14 = add nsw i32 %13, 1
  store i32 %14, i32* %1, align 4
  br label %3

15:                                               ; preds = %3
  %16 = call i32 @f(i32 2147483647, i32 0, i32 0)
  %17 = call i32 (i8*, ...) @printf(i8* getelementptr inbounds ([3 x i8], [3 x i8]* @.str, i64 0, i64 0), i32 %16)
  ret void
}

declare dso_local i32 @__isoc99_scanf(i8*, ...) #1

declare dso_local i32 @printf(i8*, ...) #1


!llvm.module.flags = !{!0}
!llvm.ident = !{!1}

!0 = !{i32 1, !"wchar_size", i32 4}
!1 = !{!"clang version 10.0.0-4ubuntu1 "}
